; Function Attrs: mustprogress nofree norecurse nosync nounwind willreturn memory(read, argmem: readwrite, inaccessiblemem: none) uwtable
define range(i32 -2, 1) i32 @deflatePending(ptr noundef readonly captures(address) %0, ptr noundef writeonly captures(address_is_null) %1, ptr noundef writeonly captures(address_is_null) %2) local_unnamed_addr #5 {
  %4 = icmp eq ptr %0, null
  br i1 %4, label %deflateStateCheck.exit.thread, label %5

5:                                                ; preds = %3
  %6 = getelementptr inbounds nuw i8, ptr %0, i64 64
  %7 = load ptr, ptr %6, align 8, !tbaa !13
  %8 = icmp eq ptr %7, null
  br i1 %8, label %deflateStateCheck.exit.thread, label %9

9:                                                ; preds = %5
  %10 = getelementptr inbounds nuw i8, ptr %0, i64 72
  %11 = load ptr, ptr %10, align 8, !tbaa !15
  %12 = icmp eq ptr %11, null
  br i1 %12, label %deflateStateCheck.exit.thread, label %13

13:                                               ; preds = %9
  %14 = getelementptr inbounds nuw i8, ptr %0, i64 56
  %15 = load ptr, ptr %14, align 8, !tbaa !16
  %16 = icmp eq ptr %15, null
  br i1 %16, label %deflateStateCheck.exit.thread, label %17

17:                                               ; preds = %13
  %18 = load ptr, ptr %15, align 8, !tbaa !17
  %.not.i = icmp eq ptr %18, %0
  br i1 %.not.i, label %19, label %deflateStateCheck.exit.thread

19:                                               ; preds = %17
  %20 = getelementptr inbounds nuw i8, ptr %15, i64 8
  %21 = load i32, ptr %20, align 8, !tbaa !26
  switch i32 %21, label %deflateStateCheck.exit.thread [
    i32 42, label %deflateStateCheck.exit
    i32 57, label %deflateStateCheck.exit
    i32 69, label %deflateStateCheck.exit
    i32 73, label %deflateStateCheck.exit
    i32 91, label %deflateStateCheck.exit
    i32 103, label %deflateStateCheck.exit
    i32 113, label %deflateStateCheck.exit
    i32 666, label %deflateStateCheck.exit
  ]

deflateStateCheck.exit:                           ; preds = %19, %19, %19, %19, %19, %19, %19, %19
  %.not9 = icmp eq ptr %1, null
  br i1 %.not9, label %26, label %22

22:                                               ; preds = %deflateStateCheck.exit
  %23 = getelementptr inbounds nuw i8, ptr %15, i64 40
  %24 = load i64, ptr %23, align 8, !tbaa !82
  %25 = trunc i64 %24 to i32
  store i32 %25, ptr %1, align 4, !tbaa !80
  br label %26

26:                                               ; preds = %22, %deflateStateCheck.exit
  %.not10 = icmp eq ptr %2, null
  br i1 %.not10, label %deflateStateCheck.exit.thread, label %27

27:                                               ; preds = %26
  %28 = getelementptr inbounds nuw i8, ptr %15, i64 5940
  %29 = load i32, ptr %28, align 4, !tbaa !85
  store i32 %29, ptr %2, align 4, !tbaa !80
  br label %deflateStateCheck.exit.thread

deflateStateCheck.exit.thread:                    ; preds = %13, %17, %19, %3, %5, %9, %26, %27
  %.0 = phi i32 [ 0, %27 ], [ 0, %26 ], [ -2, %9 ], [ -2, %5 ], [ -2, %3 ], [ -2, %19 ], [ -2, %17 ], [ -2, %13 ]
  ret i32 %.0
}